target datalayout = "e-m:e-p270:32:32-p271:32:32-p272:64:64-i64:64-i128:128-f80:128-n8:16:32:64-S128"
target triple = "x86_64-pc-linux-gnu"

%struct.cg_auto_data = type { i32, i32 }

@the_repository = external global ptr, align 8
@.str.155 = private unnamed_addr constant [30 x i8] c"maintenance.commit-graph.auto\00", align 1

; Function Attrs: inlinehint nounwind uwtable
define internal i32 @git_config_get_int(ptr noundef %0, ptr noundef %1) #6 {
  %3 = alloca ptr, align 8
  %4 = alloca ptr, align 8
  store ptr %0, ptr %3, align 8, !tbaa !11
  store ptr %1, ptr %4, align 8, !tbaa !104
  %5 = load ptr, ptr @the_repository, align 8, !tbaa !13
  %6 = load ptr, ptr %3, align 8, !tbaa !11
  %7 = load ptr, ptr %4, align 8, !tbaa !104
  %8 = call i32 @repo_config_get_int(ptr noundef %5, ptr noundef %6, ptr noundef %7)
  ret i32 %8
}

; Function Attrs: nounwind uwtable
define internal i32 @should_write_commit_graph(ptr noundef %0) #0 {
  %2 = alloca i32, align 4
  %3 = alloca ptr, align 8
  %4 = alloca i32, align 4
  %5 = alloca %struct.cg_auto_data, align 4
  %6 = alloca i32, align 4
  store ptr %0, ptr %3, align 8, !tbaa !90
  call void @llvm.lifetime.start.p0(i64 4, ptr %4) #11
  call void @llvm.lifetime.start.p0(i64 8, ptr %5) #11
  %7 = getelementptr inbounds nuw %struct.cg_auto_data, ptr %5, i32 0, i32 0
  store i32 0, ptr %7, align 4, !tbaa !168
  %8 = getelementptr inbounds nuw %struct.cg_auto_data, ptr %5, i32 0, i32 1
  store i32 100, ptr %8, align 4, !tbaa !170
  %9 = getelementptr inbounds nuw %struct.cg_auto_data, ptr %5, i32 0, i32 1
  %10 = call i32 @git_config_get_int(ptr noundef @.str.155, ptr noundef %9)
  %11 = getelementptr inbounds nuw %struct.cg_auto_data, ptr %5, i32 0, i32 1
  %12 = load i32, ptr %11, align 4, !tbaa !170
  %13 = icmp ne i32 %12, 0
  br i1 %13, label %15, label %14

14:                                               ; preds = %1
  store i32 0, ptr %2, align 4
  store i32 1, ptr %6, align 4
  br label %26

15:                                               ; preds = %1
  %16 = getelementptr inbounds nuw %struct.cg_auto_data, ptr %5, i32 0, i32 1
  %17 = load i32, ptr %16, align 4, !tbaa !170
  %18 = icmp slt i32 %17, 0
  br i1 %18, label %19, label %20

19:                                               ; preds = %15
  store i32 1, ptr %2, align 4
  store i32 1, ptr %6, align 4
  br label %26

20:                                               ; preds = %15
  %21 = load ptr, ptr @the_repository, align 8, !tbaa !13
  %22 = call ptr @get_main_ref_store(ptr noundef %21)
  %23 = call i32 @refs_for_each_ref(ptr noundef %22, ptr noundef @dfs_on_ref, ptr noundef %5)
  store i32 %23, ptr %4, align 4, !tbaa !4
  %24 = load ptr, ptr @the_repository, align 8, !tbaa !13
  call void @repo_clear_commit_marks(ptr noundef %24, i32 noundef 1)
  %25 = load i32, ptr %4, align 4, !tbaa !4
  store i32 %25, ptr %2, align 4
  store i32 1, ptr %6, align 4
  br label %26

26:                                               ; preds = %20, %19, %14
  call void @llvm.lifetime.end.p0(i64 8, ptr %5) #11
  call void @llvm.lifetime.end.p0(i64 4, ptr %4) #11
  %27 = load i32, ptr %2, align 4
  ret i32 %27
}