; Function Attrs: nounwind uwtable
define internal i32 @should_write_commit_graph(ptr readnone captures(none) %0) #0 {
  %2 = alloca %struct.cg_auto_data, align 4
  call void @llvm.lifetime.start.p0(i64 8, ptr nonnull %2) #21
  store i32 0, ptr %2, align 4, !tbaa !152
  %3 = getelementptr inbounds nuw i8, ptr %2, i64 4
  store i32 100, ptr %3, align 4, !tbaa !154
  %4 = load ptr, ptr @the_repository, align 8, !tbaa !42
  %5 = call i32 @repo_config_get_int(ptr noundef %4, ptr noundef nonnull @.str.155, ptr noundef nonnull %3) #21
  %6 = load i32, ptr %3, align 4, !tbaa !154
  %.not = icmp eq i32 %6, 0
  br i1 %.not, label %14, label %7

7:                                                ; preds = %1
  %8 = icmp slt i32 %6, 0
  br i1 %8, label %14, label %9

9:                                                ; preds = %7
  %10 = load ptr, ptr @the_repository, align 8, !tbaa !42
  %11 = call ptr @get_main_ref_store(ptr noundef %10) #21
  %12 = call i32 @refs_for_each_ref(ptr noundef %11, ptr noundef nonnull @dfs_on_ref, ptr noundef nonnull %2) #21
  %13 = load ptr, ptr @the_repository, align 8, !tbaa !42
  call void @repo_clear_commit_marks(ptr noundef %13, i32 noundef 1) #21
  br label %14

14:                                               ; preds = %7, %1, %9
  %.0 = phi i32 [ %12, %9 ], [ 0, %1 ], [ 1, %7 ]
  call void @llvm.lifetime.end.p0(i64 8, ptr nonnull %2) #21
  ret i32 %.0
}